(lp0
S'csv_jet1'
p1
aS'csv_jet2'
p2
aS'csv_jet3'
p3
aS'drmin_mu1_jet'
p4
aS'e_mu1'
p5
aS'eta_ak8jet1'
p6
aS'eta_ak8jet2'
p7
aS'eta_ak8jet3'
p8
aS'eta_jet1'
p9
aS'eta_jet2'
p10
aS'eta_jet3'
p11
aS'eta_mu1'
p12
aS'm_jet1'
p13
aS'm_jet2'
p14
aS'm_jet3'
p15
aS'met'
p16
aS'msd_ak8jet1'
p17
aS'msd_ak8jet2'
p18
aS'msd_ak8jet3'
p19
aS'n_ak8jets'
p20
aS'n_jets'
p21
aS'ndaughters_ak8jet1'
p22
aS'ndaughters_ak8jet2'
p23
aS'ndaughters_ak8jet3'
p24
aS'npv'
p25
aS'phi_ak8jet1'
p26
aS'phi_ak8jet2'
p27
aS'phi_ak8jet3'
p28
aS'phi_jet1'
p29
aS'phi_jet2'
p30
aS'phi_jet3'
p31
aS'phi_mu1'
p32
aS'pt_ak8jet1'
p33
aS'pt_ak8jet2'
p34
aS'pt_ak8jet3'
p35
aS'pt_jet1'
p36
aS'pt_jet2'
p37
aS'pt_jet3'
p38
aS'pt_mu1'
p39
aS'ptrel_mu1_jet'
p40
aS'reliso_mu1'
p41
aS's11'
p42
aS's12'
p43
aS's13'
p44
aS's22'
p45
aS's23'
p46
aS's33'
p47
aS'st'
p48
aS'stjets'
p49
aS'stlep'
p50
aS'tau1_ak8jet1'
p51
aS'tau1_ak8jet2'
p52
aS'tau1_ak8jet3'
p53
aS'tau2_ak8jet1'
p54
aS'tau2_ak8jet2'
p55
aS'tau2_ak8jet3'
p56
aS'tau3_ak8jet1'
p57
aS'tau3_ak8jet2'
p58
aS'tau3_ak8jet3'
p59
a.